target datalayout = "e-m:e-p270:32:32-p271:32:32-p272:64:64-i64:64-i128:128-f80:128-n8:16:32:64-S128"
target triple = "x86_64-pc-linux-gnu"

%struct.RelationData = type { %struct.RelFileLocator, ptr, i32, i32, i8, i8, i8, i8, i8, i32, i32, i32, i32, ptr, ptr, i32, %struct.LockInfoData, ptr, ptr, ptr, ptr, ptr, i8, ptr, ptr, ptr, ptr, ptr, ptr, i32, ptr, i8, ptr, ptr, i32, i8, i32, ptr, i8, ptr, ptr, ptr, ptr, ptr, ptr, ptr, i32, ptr, ptr, ptr, ptr, ptr, ptr, ptr, ptr, ptr, ptr, ptr, ptr, ptr, ptr, ptr, ptr, ptr, ptr, ptr, i32, i8, ptr }
%struct.RelFileLocator = type { i32, i32, i32 }
%struct.LockInfoData = type { %struct.LockRelId }
%struct.LockRelId = type { i32, i32 }
%struct.FormData_pg_index = type { i32, i32, i16, i16, i8, i8, i8, i8, i8, i8, i8, i8, i8, i8, i8, %struct.int2vector }
%struct.int2vector = type { i32, i32, i32, i32, i32, i32, [0 x i16] }
%struct.CompactAttribute = type { i32, i16, i8, i8, i8, i8, i8, i8, i8 }
%struct.TupleDescData = type { i32, i32, i32, i32, ptr, [0 x %struct.CompactAttribute] }

; Function Attrs: inlinehint nounwind uwtable
define internal ptr @TupleDescCompactAttr(ptr noundef %0, i32 noundef %1) #2 {
  %3 = alloca ptr, align 8
  %4 = alloca i32, align 4
  %5 = alloca ptr, align 8
  store ptr %0, ptr %3, align 8
  store i32 %1, ptr %4, align 4
  call void @llvm.lifetime.start.p0(i64 8, ptr %5) #8
  %6 = load ptr, ptr %3, align 8
  %7 = getelementptr inbounds nuw %struct.TupleDescData, ptr %6, i32 0, i32 5
  %8 = load i32, ptr %4, align 4
  %9 = sext i32 %8 to i64
  %10 = getelementptr inbounds [0 x %struct.CompactAttribute], ptr %7, i64 0, i64 %9
  store ptr %10, ptr %5, align 8
  %11 = load ptr, ptr %5, align 8
  call void @llvm.lifetime.end.p0(i64 8, ptr %5) #8
  ret ptr %11
}

; Function Attrs: nounwind uwtable
define dso_local i32 @_bt_keep_natts_fast(ptr noundef %0, ptr noundef %1, ptr noundef %2) #0 {
  %4 = alloca ptr, align 8
  %5 = alloca ptr, align 8
  %6 = alloca ptr, align 8
  %7 = alloca ptr, align 8
  %8 = alloca i32, align 4
  %9 = alloca i32, align 4
  %10 = alloca i32, align 4
  %11 = alloca i32, align 4
  %12 = alloca i64, align 8
  %13 = alloca i64, align 8
  %14 = alloca i8, align 1
  %15 = alloca i8, align 1
  %16 = alloca ptr, align 8
  store ptr %0, ptr %4, align 8
  store ptr %1, ptr %5, align 8
  store ptr %2, ptr %6, align 8
  call void @llvm.lifetime.start.p0(i64 8, ptr %7) #8
  %17 = load ptr, ptr %4, align 8
  %18 = getelementptr inbounds nuw %struct.RelationData, ptr %17, i32 0, i32 14
  %19 = load ptr, ptr %18, align 8
  store ptr %19, ptr %7, align 8
  call void @llvm.lifetime.start.p0(i64 4, ptr %8) #8
  %20 = load ptr, ptr %4, align 8
  %21 = getelementptr inbounds nuw %struct.RelationData, ptr %20, i32 0, i32 48
  %22 = load ptr, ptr %21, align 8
  %23 = getelementptr inbounds nuw %struct.FormData_pg_index, ptr %22, i32 0, i32 3
  %24 = load i16, ptr %23, align 2
  %25 = sext i16 %24 to i32
  store i32 %25, ptr %8, align 4
  call void @llvm.lifetime.start.p0(i64 4, ptr %9) #8
  store i32 1, ptr %9, align 4
  call void @llvm.lifetime.start.p0(i64 4, ptr %10) #8
  store i32 1, ptr %10, align 4
  br label %26

26:                                               ; preds = %74, %3
  %27 = load i32, ptr %10, align 4
  %28 = load i32, ptr %8, align 4
  %29 = icmp sle i32 %27, %28
  br i1 %29, label %31, label %30

30:                                               ; preds = %26
  store i32 2, ptr %11, align 4
  br label %77

31:                                               ; preds = %26
  call void @llvm.lifetime.start.p0(i64 8, ptr %12) #8
  call void @llvm.lifetime.start.p0(i64 8, ptr %13) #8
  call void @llvm.lifetime.start.p0(i64 1, ptr %14) #8
  call void @llvm.lifetime.start.p0(i64 1, ptr %15) #8
  call void @llvm.lifetime.start.p0(i64 8, ptr %16) #8
  %32 = load ptr, ptr %5, align 8
  %33 = load i32, ptr %10, align 4
  %34 = load ptr, ptr %7, align 8
  %35 = call i64 @index_getattr(ptr noundef %32, i32 noundef %33, ptr noundef %34, ptr noundef %14)
  store i64 %35, ptr %12, align 8
  %36 = load ptr, ptr %6, align 8
  %37 = load i32, ptr %10, align 4
  %38 = load ptr, ptr %7, align 8
  %39 = call i64 @index_getattr(ptr noundef %36, i32 noundef %37, ptr noundef %38, ptr noundef %15)
  store i64 %39, ptr %13, align 8
  %40 = load ptr, ptr %7, align 8
  %41 = load i32, ptr %10, align 4
  %42 = sub i32 %41, 1
  %43 = call ptr @TupleDescCompactAttr(ptr noundef %40, i32 noundef %42)
  store ptr %43, ptr %16, align 8
  %44 = load i8, ptr %14, align 1, !range !4, !noundef !5
  %45 = trunc i8 %44 to i1
  %46 = zext i1 %45 to i32
  %47 = load i8, ptr %15, align 1, !range !4, !noundef !5
  %48 = trunc i8 %47 to i1
  %49 = zext i1 %48 to i32
  %50 = icmp ne i32 %46, %49
  br i1 %50, label %51, label %52

51:                                               ; preds = %31
  store i32 2, ptr %11, align 4
  br label %71

52:                                               ; preds = %31
  %53 = load i8, ptr %14, align 1, !range !4, !noundef !5
  %54 = trunc i8 %53 to i1
  br i1 %54, label %68, label %55

55:                                               ; preds = %52
  %56 = load i64, ptr %12, align 8
  %57 = load i64, ptr %13, align 8
  %58 = load ptr, ptr %16, align 8
  %59 = getelementptr inbounds nuw %struct.CompactAttribute, ptr %58, i32 0, i32 2
  %60 = load i8, ptr %59, align 2, !range !4, !noundef !5
  %61 = trunc i8 %60 to i1
  %62 = load ptr, ptr %16, align 8
  %63 = getelementptr inbounds nuw %struct.CompactAttribute, ptr %62, i32 0, i32 1
  %64 = load i16, ptr %63, align 4
  %65 = sext i16 %64 to i32
  %66 = call zeroext i1 @datum_image_eq(i64 noundef %56, i64 noundef %57, i1 noundef zeroext %61, i32 noundef %65)
  br i1 %66, label %68, label %67

67:                                               ; preds = %55
  store i32 2, ptr %11, align 4
  br label %71

68:                                               ; preds = %55, %52
  %69 = load i32, ptr %9, align 4
  %70 = add i32 %69, 1
  store i32 %70, ptr %9, align 4
  store i32 0, ptr %11, align 4
  br label %71

71:                                               ; preds = %68, %67, %51
  call void @llvm.lifetime.end.p0(i64 8, ptr %16) #8
  call void @llvm.lifetime.end.p0(i64 1, ptr %15) #8
  call void @llvm.lifetime.end.p0(i64 1, ptr %14) #8
  call void @llvm.lifetime.end.p0(i64 8, ptr %13) #8
  call void @llvm.lifetime.end.p0(i64 8, ptr %12) #8
  %72 = load i32, ptr %11, align 4
  switch i32 %72, label %77 [
    i32 0, label %73
  ]

73:                                               ; preds = %71
  br label %74

74:                                               ; preds = %73
  %75 = load i32, ptr %10, align 4
  %76 = add i32 %75, 1
  store i32 %76, ptr %10, align 4
  br label %26, !llvm.loop !21

77:                                               ; preds = %71, %30
  call void @llvm.lifetime.end.p0(i64 4, ptr %10) #8
  br label %78

78:                                               ; preds = %77
  %79 = load i32, ptr %9, align 4
  store i32 1, ptr %11, align 4
  call void @llvm.lifetime.end.p0(i64 4, ptr %9) #8
  call void @llvm.lifetime.end.p0(i64 4, ptr %8) #8
  call void @llvm.lifetime.end.p0(i64 8, ptr %7) #8
  ret i32 %79
}