; Function Attrs: nounwind uwtable
define dso_local i32 @_bt_keep_natts_fast(ptr noundef readonly captures(none) %0, ptr noundef %1, ptr noundef %2) local_unnamed_addr #0 {
  %4 = alloca i8, align 1
  %5 = alloca i8, align 1
  %6 = getelementptr inbounds nuw i8, ptr %0, i64 64
  %7 = load ptr, ptr %6, align 8
  %8 = getelementptr inbounds nuw i8, ptr %0, i64 328
  %9 = load ptr, ptr %8, align 8
  %10 = getelementptr inbounds nuw i8, ptr %9, i64 10
  %11 = load i16, ptr %10, align 2
  %.not26 = icmp slt i16 %11, 1
  br i1 %.not26, label %.loopexit, label %.lr.ph

.lr.ph:                                           ; preds = %3
  %12 = getelementptr inbounds nuw i8, ptr %7, i64 24
  %narrow = add nuw i16 %11, 1
  %13 = zext i16 %narrow to i32
  %wide.trip.count = zext i16 %narrow to i64
  br label %14

14:                                               ; preds = %.lr.ph, %31
  %indvars.iv = phi i64 [ 1, %.lr.ph ], [ %indvars.iv.next, %31 ]
  %indvars30 = trunc i64 %indvars.iv to i32
  call void @llvm.lifetime.start.p0(i64 1, ptr nonnull %4) #14
  call void @llvm.lifetime.start.p0(i64 1, ptr nonnull %5) #14
  %15 = call fastcc i64 @index_getattr(ptr noundef %1, i32 noundef %indvars30, ptr noundef %7, ptr noundef %4)
  %16 = call fastcc i64 @index_getattr(ptr noundef %2, i32 noundef %indvars30, ptr noundef %7, ptr noundef %5)
  %17 = add nsw i64 %indvars.iv, -1
  %18 = getelementptr inbounds [0 x %struct.CompactAttribute], ptr %12, i64 0, i64 %17
  %19 = load i8, ptr %4, align 1, !range !4, !noundef !7
  %20 = load i8, ptr %5, align 1, !range !4, !noundef !7
  %.not21 = icmp eq i8 %19, %20
  br i1 %.not21, label %21, label %.thread

21:                                               ; preds = %14
  %22 = trunc nuw i8 %19 to i1
  br i1 %22, label %31, label %23

23:                                               ; preds = %21
  %24 = getelementptr inbounds nuw i8, ptr %18, i64 6
  %25 = load i8, ptr %24, align 2, !range !4, !noundef !7
  %26 = trunc nuw i8 %25 to i1
  %27 = getelementptr inbounds nuw i8, ptr %18, i64 4
  %28 = load i16, ptr %27, align 4
  %29 = sext i16 %28 to i32
  %30 = tail call zeroext i1 @datum_image_eq(i64 noundef %15, i64 noundef %16, i1 noundef zeroext %26, i32 noundef %29) #14
  br i1 %30, label %31, label %.thread

.thread:                                          ; preds = %14, %23
  call void @llvm.lifetime.end.p0(i64 1, ptr nonnull %5) #14
  call void @llvm.lifetime.end.p0(i64 1, ptr nonnull %4) #14
  br label %.loopexit

31:                                               ; preds = %23, %21
  %indvars.iv.next = add nuw nsw i64 %indvars.iv, 1
  call void @llvm.lifetime.end.p0(i64 1, ptr nonnull %5) #14
  call void @llvm.lifetime.end.p0(i64 1, ptr nonnull %4) #14
  %exitcond.not = icmp eq i64 %indvars.iv.next, %wide.trip.count
  br i1 %exitcond.not, label %.loopexit, label %14, !llvm.loop !23

.loopexit:                                        ; preds = %31, %3, %.thread
  %.025 = phi i32 [ %indvars30, %.thread ], [ 1, %3 ], [ %13, %31 ]
  ret i32 %.025
}